target datalayout = "e-m:e-p270:32:32-p271:32:32-p272:64:64-i64:64-i128:128-f80:128-n8:16:32:64-S128"
target triple = "x86_64-pc-linux-gnu"

%struct.AVCodecContext = type { ptr, i32, i32, ptr, i32, i32, ptr, ptr, ptr, i64, i32, i32, ptr, i32, %struct.AVRational, %struct.AVRational, %struct.AVRational, i32, i32, i32, i32, i32, %struct.AVRational, i32, i32, i32, i32, i32, i32, i32, i32, i32, i32, i32, ptr, ptr, i32, float, float, float, float, float, float, float, float, float, i32, i32, i32, i32, i32, i32, i32, i32, i32, i32, i32, i32, ptr, ptr, ptr, i32, i32, i32, i32, i32, i32, i32, i32, i32, i32, %struct.AVChannelLayout, i32, i32, i32, i32, i32, i32, i32, i32, ptr, i32, i32, i32, float, float, i32, i32, i32, i32, i32, ptr, i64, i64, float, float, i32, i32, ptr, ptr, i32, i32, i32, i32, i32, ptr, ptr, ptr, ptr, i32, i32, [8 x i64], i32, i32, i32, i32, i32, i32, i32, ptr, ptr, i32, i32, i32, i32, i32, i32, i32, i32, i32, i32, ptr, ptr, i32, i32, ptr, ptr, ptr, ptr, i32, i32, i64, i32, i32, i64, ptr, i64, ptr, i32, ptr, i32 }
%struct.AVRational = type { i32, i32 }
%struct.AVChannelLayout = type { i32, i32, %union.anon.0, ptr }
%union.anon.0 = type { i64 }
%struct.DiracContext = type { ptr, %struct.MpegvideoEncDSPContext, %struct.VideoDSPContext, %struct.DiracDSPContext, %struct.DiracVersionInfo, %struct.GetBitContext, %struct.AVDiracSeqHeader, i32, i64, [3 x %struct.Plane], i32, i32, i32, i32, i32, i32, i32, i32, i32, i32, i32, i32, i32, i32, i32, i32, i32, i32, i32, ptr, i32, i32, ptr, i32, [6 x %struct.anon], %struct.anon.1, %struct.anon.2, [2 x %struct.anon.3], i8, [2 x i16], i32, i32, i32, i32, i32, ptr, ptr, [4 x ptr], ptr, ptr, ptr, i32, [12 x i8], [3 x [1024 x i8]], [4 x ptr], [4 x ptr], ptr, ptr, ptr, ptr, [2 x ptr], [9 x ptr], [6 x ptr], [14 x %struct.DiracFrame], [8 x i8] }
%struct.MpegvideoEncDSPContext = type { ptr, ptr, ptr, ptr, [4 x ptr], ptr }
%struct.VideoDSPContext = type { ptr, ptr }
%struct.DiracDSPContext = type { ptr, [3 x [4 x ptr]], [3 x [4 x ptr]], [3 x ptr], ptr, ptr, [3 x ptr], [4 x ptr], [3 x ptr], [3 x ptr] }
%struct.DiracVersionInfo = type { i32, i32 }
%struct.GetBitContext = type { ptr, ptr, i32, i32, i32 }
%struct.AVDiracSeqHeader = type { i32, i32, i8, i8, i8, i8, i8, i16, i16, i16, i16, i8, i8, i32, i32, %struct.AVRational, %struct.AVRational, i32, i32, i32, i32, i32, %struct.DiracVersionInfo, i32 }
%struct.Plane = type { %struct.DWTPlane, i32, i32, i64, i8, i8, i8, i8, i8, i8, [5 x [4 x %struct.SubBand]] }
%struct.DWTPlane = type { i32, i32, i32, ptr, ptr, ptr }
%struct.SubBand = type { i32, i32, i32, i32, i32, i32, i32, ptr, ptr, i32, ptr }
%struct.anon = type { i32, i32 }
%struct.anon.1 = type { %struct.AVRational, [5 x [4 x i8]] }
%struct.anon.2 = type { i32, i64 }
%struct.anon.3 = type { [2 x i32], [2 x [2 x i32]], [2 x i32], i32, i32 }
%struct.DiracFrame = type { ptr, [3 x i32], [3 x [4 x ptr]], [3 x [4 x ptr]], i32, i32 }
%struct.DiracArith = type { i32, i16, i16, ptr, ptr, [22 x i16], i32, i32 }

; Function Attrs: inlinehint nounwind uwtable
define internal i32 @init_get_bits(ptr noundef %0, ptr noundef %1, i32 noundef %2) #6 {
  %4 = alloca ptr, align 8
  %5 = alloca ptr, align 8
  %6 = alloca i32, align 4
  %7 = alloca i32, align 4
  %8 = alloca i32, align 4
  store ptr %0, ptr %4, align 8, !tbaa !124
  store ptr %1, ptr %5, align 8, !tbaa !59
  store i32 %2, ptr %6, align 4, !tbaa !47
  call void @llvm.lifetime.start.p0(i64 4, ptr %7) #12
  call void @llvm.lifetime.start.p0(i64 4, ptr %8) #12
  store i32 0, ptr %8, align 4, !tbaa !47
  %9 = load i32, ptr %6, align 4, !tbaa !47
  %10 = icmp sge i32 %9, 2147483135
  br i1 %10, label %17, label %11

11:                                               ; preds = %3
  %12 = load i32, ptr %6, align 4, !tbaa !47
  %13 = icmp slt i32 %12, 0
  br i1 %13, label %17, label %14

14:                                               ; preds = %11
  %15 = load ptr, ptr %5, align 8, !tbaa !59
  %16 = icmp ne ptr %15, null
  br i1 %16, label %18, label %17

17:                                               ; preds = %14, %11, %3
  store i32 0, ptr %6, align 4, !tbaa !47
  store ptr null, ptr %5, align 8, !tbaa !59
  store i32 -1094995529, ptr %8, align 4, !tbaa !47
  br label %18

18:                                               ; preds = %17, %14
  %19 = load i32, ptr %6, align 4, !tbaa !47
  %20 = add nsw i32 %19, 7
  %21 = ashr i32 %20, 3
  store i32 %21, ptr %7, align 4, !tbaa !47
  %22 = load ptr, ptr %5, align 8, !tbaa !59
  %23 = load ptr, ptr %4, align 8, !tbaa !124
  %24 = getelementptr inbounds nuw %struct.GetBitContext, ptr %23, i32 0, i32 0
  store ptr %22, ptr %24, align 8, !tbaa !126
  %25 = load i32, ptr %6, align 4, !tbaa !47
  %26 = load ptr, ptr %4, align 8, !tbaa !124
  %27 = getelementptr inbounds nuw %struct.GetBitContext, ptr %26, i32 0, i32 3
  store i32 %25, ptr %27, align 4, !tbaa !127
  %28 = load i32, ptr %6, align 4, !tbaa !47
  %29 = add nsw i32 %28, 8
  %30 = load ptr, ptr %4, align 8, !tbaa !124
  %31 = getelementptr inbounds nuw %struct.GetBitContext, ptr %30, i32 0, i32 4
  store i32 %29, ptr %31, align 8, !tbaa !128
  %32 = load ptr, ptr %5, align 8, !tbaa !59
  %33 = load i32, ptr %7, align 4, !tbaa !47
  %34 = sext i32 %33 to i64
  %35 = getelementptr inbounds i8, ptr %32, i64 %34
  %36 = load ptr, ptr %4, align 8, !tbaa !124
  %37 = getelementptr inbounds nuw %struct.GetBitContext, ptr %36, i32 0, i32 1
  store ptr %35, ptr %37, align 8, !tbaa !129
  %38 = load ptr, ptr %4, align 8, !tbaa !124
  %39 = getelementptr inbounds nuw %struct.GetBitContext, ptr %38, i32 0, i32 2
  store i32 0, ptr %39, align 8, !tbaa !130
  %40 = load i32, ptr %8, align 4, !tbaa !47
  call void @llvm.lifetime.end.p0(i64 4, ptr %8) #12
  call void @llvm.lifetime.end.p0(i64 4, ptr %7) #12
  ret i32 %40
}

; Function Attrs: inlinehint nounwind uwtable
define internal i32 @init_get_bits8(ptr noundef %0, ptr noundef %1, i32 noundef %2) #6 {
  %4 = alloca ptr, align 8
  %5 = alloca ptr, align 8
  %6 = alloca i32, align 4
  store ptr %0, ptr %4, align 8, !tbaa !124
  store ptr %1, ptr %5, align 8, !tbaa !59
  store i32 %2, ptr %6, align 4, !tbaa !47
  %7 = load i32, ptr %6, align 4, !tbaa !47
  %8 = icmp sgt i32 %7, 268435455
  br i1 %8, label %12, label %9

9:                                                ; preds = %3
  %10 = load i32, ptr %6, align 4, !tbaa !47
  %11 = icmp slt i32 %10, 0
  br i1 %11, label %12, label %13

12:                                               ; preds = %9, %3
  store i32 -1, ptr %6, align 4, !tbaa !47
  br label %13

13:                                               ; preds = %12, %9
  %14 = load ptr, ptr %4, align 8, !tbaa !124
  %15 = load ptr, ptr %5, align 8, !tbaa !59
  %16 = load i32, ptr %6, align 4, !tbaa !47
  %17 = mul nsw i32 %16, 8
  %18 = call i32 @init_get_bits(ptr noundef %14, ptr noundef %15, i32 noundef %17)
  ret i32 %18
}

; Function Attrs: alwaysinline nounwind uwtable
define internal i32 @decode_subband_internal(ptr noundef %0, ptr noundef %1, i32 noundef %2) #10 {
  %4 = alloca i32, align 4
  %5 = alloca ptr, align 8
  %6 = alloca ptr, align 8
  %7 = alloca i32, align 4
  %8 = alloca i32, align 4
  %9 = alloca i32, align 4
  %10 = alloca i32, align 4
  %11 = alloca i32, align 4
  %12 = alloca i32, align 4
  %13 = alloca i32, align 4
  %14 = alloca %struct.DiracArith, align 8
  %15 = alloca %struct.GetBitContext, align 8
  %16 = alloca i32, align 4
  %17 = alloca i32, align 4
  %18 = alloca i32, align 4
  %19 = alloca i32, align 4
  %20 = alloca i32, align 4
  store ptr %0, ptr %5, align 8, !tbaa !29
  store ptr %1, ptr %6, align 8, !tbaa !221
  store i32 %2, ptr %7, align 4, !tbaa !47
  call void @llvm.lifetime.start.p0(i64 4, ptr %8) #12
  call void @llvm.lifetime.start.p0(i64 4, ptr %9) #12
  call void @llvm.lifetime.start.p0(i64 4, ptr %10) #12
  call void @llvm.lifetime.start.p0(i64 4, ptr %11) #12
  call void @llvm.lifetime.start.p0(i64 4, ptr %12) #12
  call void @llvm.lifetime.start.p0(i64 4, ptr %13) #12
  call void @llvm.lifetime.start.p0(i64 80, ptr %14) #12
  call void @llvm.lifetime.start.p0(i64 32, ptr %15) #12
  call void @llvm.lifetime.start.p0(i64 4, ptr %16) #12
  %21 = load ptr, ptr %5, align 8, !tbaa !29
  %22 = getelementptr inbounds nuw %struct.DiracContext, ptr %21, i32 0, i32 34
  %23 = load ptr, ptr %6, align 8, !tbaa !221
  %24 = getelementptr inbounds nuw %struct.SubBand, ptr %23, i32 0, i32 0
  %25 = load i32, ptr %24, align 8, !tbaa !226
  %26 = load ptr, ptr %6, align 8, !tbaa !221
  %27 = getelementptr inbounds nuw %struct.SubBand, ptr %26, i32 0, i32 1
  %28 = load i32, ptr %27, align 4, !tbaa !230
  %29 = icmp ne i32 %28, 0
  %30 = zext i1 %29 to i32
  %31 = add nsw i32 %25, %30
  %32 = sext i32 %31 to i64
  %33 = getelementptr inbounds [6 x %struct.anon], ptr %22, i64 0, i64 %32
  %34 = getelementptr inbounds nuw %struct.anon, ptr %33, i32 0, i32 0
  %35 = load i32, ptr %34, align 4, !tbaa !204
  store i32 %35, ptr %16, align 4, !tbaa !47
  call void @llvm.lifetime.start.p0(i64 4, ptr %17) #12
  %36 = load ptr, ptr %5, align 8, !tbaa !29
  %37 = getelementptr inbounds nuw %struct.DiracContext, ptr %36, i32 0, i32 34
  %38 = load ptr, ptr %6, align 8, !tbaa !221
  %39 = getelementptr inbounds nuw %struct.SubBand, ptr %38, i32 0, i32 0
  %40 = load i32, ptr %39, align 8, !tbaa !226
  %41 = load ptr, ptr %6, align 8, !tbaa !221
  %42 = getelementptr inbounds nuw %struct.SubBand, ptr %41, i32 0, i32 1
  %43 = load i32, ptr %42, align 4, !tbaa !230
  %44 = icmp ne i32 %43, 0
  %45 = zext i1 %44 to i32
  %46 = add nsw i32 %40, %45
  %47 = sext i32 %46 to i64
  %48 = getelementptr inbounds [6 x %struct.anon], ptr %37, i64 0, i64 %47
  %49 = getelementptr inbounds nuw %struct.anon, ptr %48, i32 0, i32 1
  %50 = load i32, ptr %49, align 4, !tbaa !206
  store i32 %50, ptr %17, align 4, !tbaa !47
  call void @llvm.lifetime.start.p0(i64 4, ptr %18) #12
  %51 = load i32, ptr %16, align 4, !tbaa !47
  %52 = load i32, ptr %17, align 4, !tbaa !47
  %53 = add nsw i32 %51, %52
  %54 = icmp eq i32 %53, 2
  %55 = zext i1 %54 to i32
  store i32 %55, ptr %18, align 4, !tbaa !47
  call void @llvm.lifetime.start.p0(i64 4, ptr %19) #12
  %56 = load ptr, ptr %6, align 8, !tbaa !221
  %57 = getelementptr inbounds nuw %struct.SubBand, ptr %56, i32 0, i32 9
  %58 = load i32, ptr %57, align 8, !tbaa !274
  %59 = icmp ne i32 %58, 0
  br i1 %59, label %61, label %60

60:                                               ; preds = %3
  store i32 0, ptr %4, align 4
  store i32 1, ptr %20, align 4
  br label %154

61:                                               ; preds = %3
  %62 = load ptr, ptr %6, align 8, !tbaa !221
  %63 = getelementptr inbounds nuw %struct.SubBand, ptr %62, i32 0, i32 10
  %64 = load ptr, ptr %63, align 8, !tbaa !276
  %65 = load ptr, ptr %6, align 8, !tbaa !221
  %66 = getelementptr inbounds nuw %struct.SubBand, ptr %65, i32 0, i32 9
  %67 = load i32, ptr %66, align 8, !tbaa !274
  %68 = call i32 @init_get_bits8(ptr noundef %15, ptr noundef %64, i32 noundef %67)
  %69 = load i32, ptr %7, align 4, !tbaa !47
  %70 = icmp ne i32 %69, 0
  br i1 %70, label %71, label %75

71:                                               ; preds = %61
  %72 = load ptr, ptr %6, align 8, !tbaa !221
  %73 = getelementptr inbounds nuw %struct.SubBand, ptr %72, i32 0, i32 9
  %74 = load i32, ptr %73, align 8, !tbaa !274
  call void @ff_dirac_init_arith_decoder(ptr noundef %14, ptr noundef %15, i32 noundef %74)
  br label %75

75:                                               ; preds = %71, %61
  store i32 0, ptr %12, align 4, !tbaa !47
  store i32 0, ptr %9, align 4, !tbaa !47
  br label %76

76:                                               ; preds = %130, %75
  %77 = load i32, ptr %9, align 4, !tbaa !47
  %78 = load i32, ptr %17, align 4, !tbaa !47
  %79 = icmp slt i32 %77, %78
  br i1 %79, label %80, label %133

80:                                               ; preds = %76
  %81 = load ptr, ptr %6, align 8, !tbaa !221
  %82 = getelementptr inbounds nuw %struct.SubBand, ptr %81, i32 0, i32 4
  %83 = load i32, ptr %82, align 8, !tbaa !229
  %84 = sext i32 %83 to i64
  %85 = load i32, ptr %9, align 4, !tbaa !47
  %86 = sext i32 %85 to i64
  %87 = add nsw i64 %86, 1
  %88 = mul nsw i64 %84, %87
  %89 = load i32, ptr %17, align 4, !tbaa !47
  %90 = sext i32 %89 to i64
  %91 = sdiv i64 %88, %90
  %92 = trunc i64 %91 to i32
  store i32 %92, ptr %13, align 4, !tbaa !47
  store i32 0, ptr %10, align 4, !tbaa !47
  store i32 0, ptr %8, align 4, !tbaa !47
  br label %93

93:                                               ; preds = %125, %80
  %94 = load i32, ptr %8, align 4, !tbaa !47
  %95 = load i32, ptr %16, align 4, !tbaa !47
  %96 = icmp slt i32 %94, %95
  br i1 %96, label %97, label %128

97:                                               ; preds = %93
  %98 = load ptr, ptr %6, align 8, !tbaa !221
  %99 = getelementptr inbounds nuw %struct.SubBand, ptr %98, i32 0, i32 3
  %100 = load i32, ptr %99, align 4, !tbaa !228
  %101 = sext i32 %100 to i64
  %102 = load i32, ptr %8, align 4, !tbaa !47
  %103 = sext i32 %102 to i64
  %104 = add nsw i64 %103, 1
  %105 = mul nsw i64 %101, %104
  %106 = load i32, ptr %16, align 4, !tbaa !47
  %107 = sext i32 %106 to i64
  %108 = sdiv i64 %105, %107
  %109 = trunc i64 %108 to i32
  store i32 %109, ptr %11, align 4, !tbaa !47
  %110 = load ptr, ptr %5, align 8, !tbaa !29
  %111 = load ptr, ptr %6, align 8, !tbaa !221
  %112 = load i32, ptr %10, align 4, !tbaa !47
  %113 = load i32, ptr %11, align 4, !tbaa !47
  %114 = load i32, ptr %12, align 4, !tbaa !47
  %115 = load i32, ptr %13, align 4, !tbaa !47
  %116 = load i32, ptr %18, align 4, !tbaa !47
  %117 = load i32, ptr %7, align 4, !tbaa !47
  %118 = call i32 @codeblock(ptr noundef %110, ptr noundef %111, ptr noundef %15, ptr noundef %14, i32 noundef %112, i32 noundef %113, i32 noundef %114, i32 noundef %115, i32 noundef %116, i32 noundef %117)
  store i32 %118, ptr %19, align 4, !tbaa !47
  %119 = load i32, ptr %19, align 4, !tbaa !47
  %120 = icmp slt i32 %119, 0
  br i1 %120, label %121, label %123

121:                                              ; preds = %97
  %122 = load i32, ptr %19, align 4, !tbaa !47
  store i32 %122, ptr %4, align 4
  store i32 1, ptr %20, align 4
  br label %154

123:                                              ; preds = %97
  %124 = load i32, ptr %11, align 4, !tbaa !47
  store i32 %124, ptr %10, align 4, !tbaa !47
  br label %125

125:                                              ; preds = %123
  %126 = load i32, ptr %8, align 4, !tbaa !47
  %127 = add nsw i32 %126, 1
  store i32 %127, ptr %8, align 4, !tbaa !47
  br label %93, !llvm.loop !318

128:                                              ; preds = %93
  %129 = load i32, ptr %13, align 4, !tbaa !47
  store i32 %129, ptr %12, align 4, !tbaa !47
  br label %130

130:                                              ; preds = %128
  %131 = load i32, ptr %9, align 4, !tbaa !47
  %132 = add nsw i32 %131, 1
  store i32 %132, ptr %9, align 4, !tbaa !47
  br label %76, !llvm.loop !319

133:                                              ; preds = %76
  %134 = load ptr, ptr %6, align 8, !tbaa !221
  %135 = getelementptr inbounds nuw %struct.SubBand, ptr %134, i32 0, i32 1
  %136 = load i32, ptr %135, align 4, !tbaa !230
  %137 = icmp eq i32 %136, 0
  br i1 %137, label %138, label %153

138:                                              ; preds = %133
  %139 = load ptr, ptr %5, align 8, !tbaa !29
  %140 = getelementptr inbounds nuw %struct.DiracContext, ptr %139, i32 0, i32 22
  %141 = load i32, ptr %140, align 16, !tbaa !104
  %142 = icmp eq i32 %141, 0
  br i1 %142, label %143, label %153

143:                                              ; preds = %138
  %144 = load ptr, ptr %5, align 8, !tbaa !29
  %145 = getelementptr inbounds nuw %struct.DiracContext, ptr %144, i32 0, i32 13
  %146 = load i32, ptr %145, align 4, !tbaa !101
  %147 = icmp ne i32 %146, 0
  br i1 %147, label %148, label %150

148:                                              ; preds = %143
  %149 = load ptr, ptr %6, align 8, !tbaa !221
  call void @intra_dc_prediction_10(ptr noundef %149)
  br label %152

150:                                              ; preds = %143
  %151 = load ptr, ptr %6, align 8, !tbaa !221
  call void @intra_dc_prediction_8(ptr noundef %151)
  br label %152

152:                                              ; preds = %150, %148
  br label %153

153:                                              ; preds = %152, %138, %133
  store i32 0, ptr %4, align 4
  store i32 1, ptr %20, align 4
  br label %154

154:                                              ; preds = %153, %121, %60
  call void @llvm.lifetime.end.p0(i64 4, ptr %19) #12
  call void @llvm.lifetime.end.p0(i64 4, ptr %18) #12
  call void @llvm.lifetime.end.p0(i64 4, ptr %17) #12
  call void @llvm.lifetime.end.p0(i64 4, ptr %16) #12
  call void @llvm.lifetime.end.p0(i64 32, ptr %15) #12
  call void @llvm.lifetime.end.p0(i64 80, ptr %14) #12
  call void @llvm.lifetime.end.p0(i64 4, ptr %13) #12
  call void @llvm.lifetime.end.p0(i64 4, ptr %12) #12
  call void @llvm.lifetime.end.p0(i64 4, ptr %11) #12
  call void @llvm.lifetime.end.p0(i64 4, ptr %10) #12
  call void @llvm.lifetime.end.p0(i64 4, ptr %9) #12
  call void @llvm.lifetime.end.p0(i64 4, ptr %8) #12
  %155 = load i32, ptr %4, align 4
  ret i32 %155
}

; Function Attrs: nounwind uwtable
define internal i32 @decode_subband_arith(ptr noundef %0, ptr noundef %1) #1 {
  %3 = alloca ptr, align 8
  %4 = alloca ptr, align 8
  %5 = alloca ptr, align 8
  store ptr %0, ptr %3, align 8, !tbaa !4
  store ptr %1, ptr %4, align 8, !tbaa !67
  call void @llvm.lifetime.start.p0(i64 8, ptr %5) #12
  %6 = load ptr, ptr %3, align 8, !tbaa !4
  %7 = getelementptr inbounds nuw %struct.AVCodecContext, ptr %6, i32 0, i32 6
  %8 = load ptr, ptr %7, align 8, !tbaa !9
  store ptr %8, ptr %5, align 8, !tbaa !29
  %9 = load ptr, ptr %5, align 8, !tbaa !29
  %10 = load ptr, ptr %4, align 8, !tbaa !67
  %11 = call i32 @decode_subband_internal(ptr noundef %9, ptr noundef %10, i32 noundef 1)
  call void @llvm.lifetime.end.p0(i64 8, ptr %5) #12
  ret i32 %11
}