; Function Attrs: nounwind uwtable
define internal range(i32 -2147483648, 1) i32 @decode_subband_arith(ptr noundef readonly captures(none) %0, ptr noundef captures(none) %1) #1 {
  %3 = alloca %struct.DiracArith, align 8
  %4 = alloca %struct.GetBitContext, align 8
  %5 = getelementptr inbounds nuw i8, ptr %0, i64 32
  %6 = load ptr, ptr %5, align 8, !tbaa !4
  call void @llvm.lifetime.start.p0(i64 80, ptr nonnull %3) #13
  call void @llvm.lifetime.start.p0(i64 32, ptr nonnull %4) #13
  %7 = getelementptr inbounds nuw i8, ptr %6, i64 4716
  %8 = load i32, ptr %1, align 8, !tbaa !219
  %9 = getelementptr inbounds nuw i8, ptr %1, i64 4
  %10 = load i32, ptr %9, align 4, !tbaa !223
  %11 = icmp ne i32 %10, 0
  %12 = zext i1 %11 to i32
  %13 = add nsw i32 %8, %12
  %14 = sext i32 %13 to i64
  %15 = getelementptr inbounds [6 x %struct.anon], ptr %7, i64 0, i64 %14
  %16 = load i32, ptr %15, align 4, !tbaa !193
  %17 = getelementptr inbounds nuw i8, ptr %15, i64 4
  %18 = load i32, ptr %17, align 4, !tbaa !195
  %19 = add nsw i32 %18, %16
  %20 = icmp eq i32 %19, 2
  %21 = zext i1 %20 to i32
  %22 = getelementptr inbounds nuw i8, ptr %1, i64 48
  %23 = load i32, ptr %22, align 8, !tbaa !254
  %.not.i = icmp eq i32 %23, 0
  br i1 %.not.i, label %decode_subband_internal.exit, label %24

24:                                               ; preds = %2
  %25 = getelementptr inbounds nuw i8, ptr %1, i64 56
  %26 = load ptr, ptr %25, align 8, !tbaa !256
  %or.cond.i = icmp ugt i32 %23, 268435455
  %27 = shl nuw nsw i32 %23, 3
  %28 = select i1 %or.cond.i, i32 -8, i32 %27
  %or.cond.i.i = icmp ult i32 %28, 2147483135
  %29 = icmp ne ptr %26, null
  %or.cond3.i.i = and i1 %or.cond.i.i, %29
  %.018.i.i = select i1 %or.cond3.i.i, i32 %28, i32 0
  %.017.i.i = select i1 %or.cond.i.i, ptr %26, ptr null
  %30 = lshr exact i32 %.018.i.i, 3
  store ptr %.017.i.i, ptr %4, align 8, !tbaa !63
  %31 = getelementptr inbounds nuw i8, ptr %4, i64 20
  store i32 %.018.i.i, ptr %31, align 4, !tbaa !64
  %32 = add nuw nsw i32 %.018.i.i, 8
  %33 = getelementptr inbounds nuw i8, ptr %4, i64 24
  store i32 %32, ptr %33, align 8, !tbaa !65
  %34 = zext nneg i32 %30 to i64
  %35 = getelementptr inbounds nuw i8, ptr %.017.i.i, i64 %34
  %36 = getelementptr inbounds nuw i8, ptr %4, i64 8
  store ptr %35, ptr %36, align 8, !tbaa !66
  %37 = getelementptr inbounds nuw i8, ptr %4, i64 16
  store i32 0, ptr %37, align 8, !tbaa !67
  call void @ff_dirac_init_arith_decoder(ptr noundef nonnull %3, ptr noundef nonnull %4, i32 noundef %23) #13
  %38 = icmp sgt i32 %18, 0
  br i1 %38, label %.lr.ph, label %._crit_edge

.lr.ph:                                           ; preds = %24
  %39 = getelementptr inbounds nuw i8, ptr %1, i64 16
  %40 = zext nneg i32 %18 to i64
  %41 = getelementptr inbounds nuw i8, ptr %1, i64 12
  %42 = sext i32 %16 to i64
  %smax = call i32 @llvm.smax.i32(i32 %16, i32 0)
  %wide.trip.count = zext nneg i32 %smax to i64
  br label %43

.loopexit:                                        ; preds = %49
  %exitcond10.not = icmp eq i64 %indvars.iv.next7, %40
  br i1 %exitcond10.not, label %._crit_edge, label %43, !llvm.loop !296

43:                                               ; preds = %.lr.ph, %.loopexit
  %indvars.iv6 = phi i64 [ 0, %.lr.ph ], [ %indvars.iv.next7, %.loopexit ]
  %.045.i3 = phi i32 [ 0, %.lr.ph ], [ %48, %.loopexit ]
  %44 = load i32, ptr %39, align 8, !tbaa !222
  %45 = sext i32 %44 to i64
  %indvars.iv.next7 = add nuw nsw i64 %indvars.iv6, 1
  %46 = mul nsw i64 %indvars.iv.next7, %45
  %47 = sdiv i64 %46, %40
  %48 = trunc i64 %47 to i32
  br label %49

49:                                               ; preds = %50, %43
  %indvars.iv = phi i64 [ %indvars.iv.next, %50 ], [ 0, %43 ]
  %.044.i = phi i32 [ %55, %50 ], [ 0, %43 ]
  %exitcond.not = icmp eq i64 %indvars.iv, %wide.trip.count
  br i1 %exitcond.not, label %.loopexit, label %50

50:                                               ; preds = %49
  %51 = load i32, ptr %41, align 4, !tbaa !221
  %52 = sext i32 %51 to i64
  %indvars.iv.next = add nuw nsw i64 %indvars.iv, 1
  %53 = mul nsw i64 %indvars.iv.next, %52
  %54 = sdiv i64 %53, %42
  %55 = trunc i64 %54 to i32
  %56 = call fastcc i32 @codeblock(ptr noundef %6, ptr noundef nonnull %1, ptr noundef %4, ptr noundef %3, i32 noundef %.044.i, i32 noundef %55, i32 noundef %.045.i3, i32 noundef %48, i32 noundef %21, i32 noundef 1)
  %57 = icmp slt i32 %56, 0
  br i1 %57, label %decode_subband_internal.exit, label %49, !llvm.loop !297

._crit_edge:                                      ; preds = %.loopexit, %24
  %58 = load i32, ptr %9, align 4, !tbaa !223
  %59 = icmp eq i32 %58, 0
  br i1 %59, label %60, label %decode_subband_internal.exit

60:                                               ; preds = %._crit_edge
  %61 = getelementptr inbounds nuw i8, ptr %6, i64 4656
  %62 = load i32, ptr %61, align 16, !tbaa !111
  %63 = icmp eq i32 %62, 0
  br i1 %63, label %64, label %decode_subband_internal.exit

64:                                               ; preds = %60
  %65 = getelementptr inbounds nuw i8, ptr %6, i64 4620
  %66 = load i32, ptr %65, align 4, !tbaa !96
  %.not51.i = icmp eq i32 %66, 0
  br i1 %.not51.i, label %68, label %67

67:                                               ; preds = %64
  call fastcc void @intra_dc_prediction_10(ptr noundef nonnull %1)
  br label %decode_subband_internal.exit

68:                                               ; preds = %64
  call fastcc void @intra_dc_prediction_8(ptr noundef nonnull %1)
  br label %decode_subband_internal.exit

decode_subband_internal.exit:                     ; preds = %50, %2, %._crit_edge, %60, %67, %68
  %.0.i = phi i32 [ 0, %2 ], [ 0, %67 ], [ 0, %68 ], [ 0, %60 ], [ 0, %._crit_edge ], [ %56, %50 ]
  call void @llvm.lifetime.end.p0(i64 32, ptr nonnull %4) #13
  call void @llvm.lifetime.end.p0(i64 80, ptr nonnull %3) #13
  ret i32 %.0.i
}